; Function Attrs: mustprogress uwtable
define hidden void @_ZN4cvc58internal6theory5arith6linear9DioSolver9saveQueueEv(ptr noundef nonnull align 8 dereferenceable(1032) %0) local_unnamed_addr #3 align 2 {
  %2 = getelementptr inbounds nuw i8, ptr %0, i64 448
  %3 = load ptr, ptr %2, align 8, !tbaa !198, !noalias !255
  %4 = getelementptr inbounds nuw i8, ptr %0, i64 480
  %5 = load ptr, ptr %4, align 8, !tbaa !198, !noalias !258
  %.not18 = icmp eq ptr %3, %5
  br i1 %.not18, label %._crit_edge, label %.lr.ph

.lr.ph:                                           ; preds = %1
  %6 = getelementptr inbounds nuw i8, ptr %0, i64 472
  %7 = load ptr, ptr %6, align 8, !tbaa !203, !noalias !255
  %8 = getelementptr inbounds nuw i8, ptr %0, i64 464
  %9 = load ptr, ptr %8, align 8, !tbaa !204, !noalias !255
  %10 = getelementptr inbounds nuw i8, ptr %0, i64 512
  br label %11

11:                                               ; preds = %.lr.ph, %_ZNSt15_Deque_iteratorImRKmPS0_EppEv.exit
  %.sroa.015.021 = phi ptr [ %3, %.lr.ph ], [ %.sroa.015.1, %_ZNSt15_Deque_iteratorImRKmPS0_EppEv.exit ]
  %.sroa.11.020 = phi ptr [ %9, %.lr.ph ], [ %.sroa.11.1, %_ZNSt15_Deque_iteratorImRKmPS0_EppEv.exit ]
  %.sroa.14.019 = phi ptr [ %7, %.lr.ph ], [ %.sroa.14.1, %_ZNSt15_Deque_iteratorImRKmPS0_EppEv.exit ]
  tail call void @_ZN4cvc57context6CDListImNS0_14DefaultCleanUpImEESaImEE9push_backERKm(ptr noundef nonnull align 8 dereferenceable(74) %10, ptr noundef nonnull align 8 dereferenceable(8) %.sroa.015.021)
  %12 = getelementptr inbounds nuw i8, ptr %.sroa.015.021, i64 8
  %13 = icmp eq ptr %12, %.sroa.11.020
  br i1 %13, label %14, label %_ZNSt15_Deque_iteratorImRKmPS0_EppEv.exit

14:                                               ; preds = %11
  %15 = getelementptr inbounds nuw i8, ptr %.sroa.14.019, i64 8
  %16 = load ptr, ptr %15, align 8, !tbaa !81
  %17 = getelementptr inbounds nuw i8, ptr %16, i64 512
  br label %_ZNSt15_Deque_iteratorImRKmPS0_EppEv.exit

_ZNSt15_Deque_iteratorImRKmPS0_EppEv.exit:        ; preds = %11, %14
  %.sroa.14.1 = phi ptr [ %15, %14 ], [ %.sroa.14.019, %11 ]
  %.sroa.11.1 = phi ptr [ %17, %14 ], [ %.sroa.11.020, %11 ]
  %.sroa.015.1 = phi ptr [ %16, %14 ], [ %12, %11 ]
  %.not = icmp eq ptr %.sroa.015.1, %5
  br i1 %.not, label %._crit_edge, label %11, !llvm.loop !261

._crit_edge:                                      ; preds = %_ZNSt15_Deque_iteratorImRKmPS0_EppEv.exit, %1
  ret void
}